; Function Attrs: mustprogress uwtable
define hidden void @_ZN4cvc54main15CommandExecutor18flushOutputStreamsEv(ptr noundef nonnull align 8 dereferenceable(41) %this) local_unnamed_addr #4 align 2 {
entry:
  %ref.tmp = alloca %"class.cvc5::DriverOptions", align 8
  %ref.tmp4 = alloca %"class.cvc5::DriverOptions", align 8
  %ref.tmp11 = alloca %"class.cvc5::DriverOptions", align 8
  %d_solver = getelementptr inbounds i8, ptr %this, i64 8
  %0 = load ptr, ptr %d_solver, align 8
  %1 = load ptr, ptr %0, align 8
  %call2 = tail call ptr @_ZNK4cvc56Solver16getDriverOptionsEv(ptr noundef nonnull align 8 dereferenceable(40) %1)
  store ptr %call2, ptr %ref.tmp, align 8
  %call3 = call noundef nonnull align 8 dereferenceable(8) ptr @_ZNK4cvc513DriverOptions3errEv(ptr noundef nonnull align 8 dereferenceable(8) %ref.tmp)
  %vtable = load ptr, ptr %this, align 8
  %vfn = getelementptr inbounds i8, ptr %vtable, i64 16
  %2 = load ptr, ptr %vfn, align 8
  call void %2(ptr noundef nonnull align 8 dereferenceable(41) %this, ptr noundef nonnull align 8 dereferenceable(8) %call3)
  %3 = load ptr, ptr %d_solver, align 8
  %4 = load ptr, ptr %3, align 8
  %call7 = call ptr @_ZNK4cvc56Solver16getDriverOptionsEv(ptr noundef nonnull align 8 dereferenceable(40) %4)
  store ptr %call7, ptr %ref.tmp4, align 8
  %call9 = call noundef nonnull align 8 dereferenceable(8) ptr @_ZNK4cvc513DriverOptions3outEv(ptr noundef nonnull align 8 dereferenceable(8) %ref.tmp4)
  %call10 = call noundef nonnull align 8 dereferenceable(8) ptr @_ZNSolsEPFRSoS_E(ptr noundef nonnull align 8 dereferenceable(8) %call9, ptr noundef nonnull @_ZSt5flushIcSt11char_traitsIcEERSt13basic_ostreamIT_T0_ES6_)
  %5 = load ptr, ptr %d_solver, align 8
  %6 = load ptr, ptr %5, align 8
  %call14 = call ptr @_ZNK4cvc56Solver16getDriverOptionsEv(ptr noundef nonnull align 8 dereferenceable(40) %6)
  store ptr %call14, ptr %ref.tmp11, align 8
  %call16 = call noundef nonnull align 8 dereferenceable(8) ptr @_ZNK4cvc513DriverOptions3errEv(ptr noundef nonnull align 8 dereferenceable(8) %ref.tmp11)
  %call17 = call noundef nonnull align 8 dereferenceable(8) ptr @_ZNSolsEPFRSoS_E(ptr noundef nonnull align 8 dereferenceable(8) %call16, ptr noundef nonnull @_ZSt5flushIcSt11char_traitsIcEERSt13basic_ostreamIT_T0_ES6_)
  ret void
}